target datalayout = "e-m:e-p270:32:32-p271:32:32-p272:64:64-i64:64-i128:128-f80:128-n8:16:32:64-S128"
target triple = "x86_64-pc-linux-gnu"

%struct.ImVec2 = type { float, float }
%struct.ImRect = type { %struct.ImVec2, %struct.ImVec2 }
%struct.ImGuiWindow = type <{ ptr, ptr, i32, i32, i32, [4 x i8], ptr, %struct.ImVec2, %struct.ImVec2, %struct.ImVec2, %struct.ImVec2, %struct.ImVec2, %struct.ImVec2, %struct.ImVec2, float, float, float, float, float, float, float, float, float, float, i32, i32, i32, i32, %struct.ImVec2, %struct.ImVec2, %struct.ImVec2, %struct.ImVec2, %struct.ImVec2, %struct.ImVec2, i8, i8, i8, i8, i8, i8, i8, i8, i8, i8, i8, i8, i8, i8, i8, i8, i16, i16, i16, i16, i16, i8, i8, i8, [3 x i8], i32, i8, i8, i8, i8, i32, %struct.ImVec2, %struct.ImVec2, [4 x i8], %struct.ImVector, %struct.ImGuiWindowTempData, %struct.ImRect, %struct.ImRect, %struct.ImRect, %struct.ImRect, %struct.ImRect, %struct.ImRect, %struct.ImRect, %struct.ImVec2ih, %struct.ImVec2ih, i32, float, float, [4 x i8], %struct.ImGuiStorage, %struct.ImVector.3, float, float, float, i32, ptr, %struct.ImDrawList, ptr, ptr, ptr, ptr, ptr, ptr, ptr, ptr, [2 x i32], [2 x %struct.ImRect], [2 x %struct.ImVec2], i32, i32, i32, i8, [3 x i8] }>
%struct.ImVector = type { i32, i32, ptr }
%struct.ImGuiWindowTempData = type { %struct.ImVec2, %struct.ImVec2, %struct.ImVec2, %struct.ImVec2, %struct.ImVec2, %struct.ImVec2, %struct.ImVec2, float, float, i8, i8, %struct.ImVec1, %struct.ImVec1, %struct.ImVec1, %struct.ImVec2, i32, i16, i16, i8, i8, i8, i8, %struct.ImVec2, %struct.ImGuiMenuColumns, i32, i32, %struct.ImVector.0, ptr, ptr, i32, i32, i32, i32, i32, i32, float, float, %struct.ImVector.1, %struct.ImVector.1 }
%struct.ImVec1 = type { float }
%struct.ImGuiMenuColumns = type <{ i32, i32, i16, i16, i16, i16, i16, [4 x i16], [2 x i8] }>
%struct.ImVector.0 = type { i32, i32, ptr }
%struct.ImVector.1 = type { i32, i32, ptr }
%struct.ImVec2ih = type { i16, i16 }
%struct.ImGuiStorage = type { %struct.ImVector.2 }
%struct.ImVector.2 = type { i32, i32, ptr }
%struct.ImVector.3 = type { i32, i32, ptr }
%struct.ImDrawList = type { %struct.ImVector.4, %struct.ImVector.5, %struct.ImVector.6, i32, i32, ptr, ptr, ptr, %struct.ImVector.7, %struct.ImDrawCmdHeader, %struct.ImDrawListSplitter, %struct.ImVector.9, %struct.ImVector.10, %struct.ImVector.11, float, ptr }
%struct.ImVector.4 = type { i32, i32, ptr }
%struct.ImVector.5 = type { i32, i32, ptr }
%struct.ImVector.6 = type { i32, i32, ptr }
%struct.ImVector.7 = type { i32, i32, ptr }
%struct.ImDrawCmdHeader = type <{ %struct.ImVec4, i64, i32, [4 x i8] }>
%struct.ImVec4 = type { float, float, float, float }
%struct.ImDrawListSplitter = type { i32, i32, %struct.ImVector.8 }
%struct.ImVector.8 = type { i32, i32, ptr }
%struct.ImVector.9 = type { i32, i32, ptr }
%struct.ImVector.10 = type { i32, i32, ptr }
%struct.ImVector.11 = type { i32, i32, ptr }
%struct.ImGuiContext = type { i8, i8, %struct.ImGuiIO, %struct.ImGuiPlatformIO, %struct.ImGuiStyle, ptr, float, float, float, float, %struct.ImDrawListSharedData, double, i32, i32, i32, i32, i8, i8, i8, i8, ptr, [16 x i8], %struct.ImVector.12, %struct.ImVector.12, i32, i32, %struct.ImVector.0, %struct.ImVector.0, %struct.ImVector.0, %struct.ImVector.13, %struct.ImGuiStorage, i32, float, i32, ptr, ptr, ptr, ptr, ptr, ptr, %struct.ImVec2, i32, i32, float, %struct.ImVec2, %struct.ImVec2, i32, i32, i32, i32, i32, float, float, i8, i8, i8, i32, i32, float, i8, i8, i8, i8, i8, i8, i8, i8, %struct.ImVec2, ptr, i32, i32, %struct.ImGuiDeactivatedItemData, %struct.ImGuiDataTypeStorage, i32, float, double, double, double, %struct.ImBitArray, [154 x %struct.ImGuiKeyOwnerData], %struct.ImGuiKeyRoutingTable, i32, i8, i32, i32, i32, i32, %struct.ImGuiNextItemData, %struct.ImGuiLastItemData, %struct.ImGuiNextWindowData, i8, i32, %struct.ImVector.15, %struct.ImVector.16, %struct.ImVector.17, %struct.ImVector.18, %struct.ImVector.19, %struct.ImVector.20, %struct.ImVector.21, %struct.ImVector.21, %struct.ImVector.22, %struct.ImVector.23, i8, i8, i8, i8, i32, ptr, i32, i32, i32, i32, i32, i32, %struct.ImVector.18, i32, float, i32, i32, i32, i64, i8, i8, i8, i8, %struct.ImGuiNavItemData, i8, i8, i8, i32, i32, i32, i32, i32, i32, %struct.ImRect, %struct.ImRect, i32, i32, i32, %struct.ImGuiNavItemData, %struct.ImGuiNavItemData, %struct.ImGuiNavItemData, %struct.ImGuiNavItemData, i32, i32, i32, i32, i8, i8, i32, i32, ptr, ptr, ptr, float, float, i8, i32, %struct.ImVec2, %struct.ImVec2, float, i8, i8, i8, i32, i32, i32, [4 x i8], %struct.ImGuiPayload, %struct.ImRect, %struct.ImRect, i32, i32, float, i32, i32, i32, i32, %struct.ImVector.11, [16 x i8], i32, %struct.ImVector.24, ptr, i32, i32, %struct.ImVector.25, %struct.ImPool, %struct.ImVector.1, %struct.ImVector.8, ptr, %struct.ImPool.27, %struct.ImVector.29, %struct.ImVector.30, %struct.ImGuiBoxSelectState, ptr, i32, %struct.ImVector.31, %struct.ImPool.32, i32, i32, float, float, i32, i32, i32, float, %struct.ImVec2, %struct.ImGuiInputTextState, %struct.ImGuiInputTextDeactivatedState, %struct.ImFont, i32, %struct.ImGuiDataTypeStorage, i32, i32, i32, i32, i32, float, float, i32, %struct.ImVec4, %struct.ImGuiComboPreviewData, %struct.ImRect, i8, i16, float, float, float, i8, i8, float, float, float, i16, i16, ptr, %struct.ImVector.34, %struct.ImVector, %struct.ImGuiTypingSelectState, %struct.ImGuiPlatformImeData, %struct.ImGuiPlatformImeData, i8, float, %struct.ImGuiTextBuffer, %struct.ImVector.36, %struct.ImChunkStream, %struct.ImChunkStream.37, %struct.ImVector.38, i32, [10 x ptr], i8, i32, ptr, ptr, %struct.ImGuiTextBuffer, ptr, ptr, float, i8, i32, i32, i32, ptr, ptr, %struct.ImVec2, i8, i32, %struct.ImGuiErrorRecoveryState, ptr, i32, i32, %struct.ImGuiTextBuffer, %struct.ImGuiTextIndex, i32, i32, i8, i8, i8, i32, i8, i8, i8, i32, float, %struct.ImVec4, %struct.ImGuiMetricsConfig, %struct.ImGuiIDStackTool, %struct.ImGuiDebugAllocInfo, [60 x float], i32, i32, float, i32, i32, i32, %struct.ImVector.34, [64 x i8] }
%struct.ImGuiIO = type { i32, i32, %struct.ImVec2, float, float, ptr, ptr, ptr, ptr, float, i8, ptr, %struct.ImVec2, i8, i8, i8, i8, i8, i8, i8, i8, i8, i8, i8, i8, i8, i8, i8, i8, i8, float, float, float, float, float, float, i8, i8, i8, i8, i8, i8, i8, i8, i8, i8, ptr, ptr, ptr, ptr, ptr, i8, i8, i8, i8, i8, i8, i8, float, i32, i32, i32, i32, %struct.ImVec2, ptr, %struct.ImVec2, [5 x i8], float, float, i32, i8, i8, i8, i8, i32, [154 x %struct.ImGuiKeyData], i8, %struct.ImVec2, [5 x %struct.ImVec2], [5 x double], [5 x i8], [5 x i8], [5 x i16], [5 x i16], [5 x i8], [5 x double], [5 x i8], [5 x i8], i8, i8, [5 x float], [5 x float], [5 x float], float, i8, i8, i16, %struct.ImVector.5, ptr, ptr, ptr }
%struct.ImGuiKeyData = type { i8, float, float, float }
%struct.ImGuiPlatformIO = type { ptr, ptr, ptr, ptr, ptr, ptr, ptr, i16, ptr }
%struct.ImGuiStyle = type { float, float, %struct.ImVec2, float, float, float, %struct.ImVec2, %struct.ImVec2, i32, float, float, float, float, %struct.ImVec2, float, float, %struct.ImVec2, %struct.ImVec2, %struct.ImVec2, %struct.ImVec2, float, float, float, float, float, float, float, float, float, float, float, float, float, float, %struct.ImVec2, i32, %struct.ImVec2, %struct.ImVec2, float, %struct.ImVec2, %struct.ImVec2, %struct.ImVec2, %struct.ImVec2, float, i8, i8, i8, float, float, [56 x %struct.ImVec4], float, float, float, i32, i32 }
%struct.ImDrawListSharedData = type <{ %struct.ImVec2, ptr, ptr, float, float, float, float, float, i32, %struct.ImVec4, %struct.ImVector.7, [48 x %struct.ImVec2], float, [64 x i8], [4 x i8] }>
%struct.ImVector.12 = type { i32, i32, ptr }
%struct.ImVector.13 = type { i32, i32, ptr }
%struct.ImGuiDeactivatedItemData = type { i32, i32, i8, i8 }
%struct.ImBitArray = type { [5 x i32] }
%struct.ImGuiKeyOwnerData = type <{ i32, i32, i8, i8, [2 x i8] }>
%struct.ImGuiKeyRoutingTable = type { [154 x i16], %struct.ImVector.14, %struct.ImVector.14 }
%struct.ImVector.14 = type { i32, i32, ptr }
%struct.ImGuiNextItemData = type <{ i32, i32, i32, [4 x i8], i64, float, i32, i32, i8, i8, %struct.ImGuiDataTypeStorage, [2 x i8], i32, [4 x i8] }>
%struct.ImGuiLastItemData = type { i32, i32, i32, %struct.ImRect, %struct.ImRect, %struct.ImRect, %struct.ImRect, i32 }
%struct.ImGuiNextWindowData = type { i32, i32, i32, i32, %struct.ImVec2, %struct.ImVec2, %struct.ImVec2, %struct.ImVec2, %struct.ImVec2, i32, i32, i8, %struct.ImRect, ptr, ptr, float, %struct.ImVec2, i32 }
%struct.ImVector.15 = type { i32, i32, ptr }
%struct.ImVector.16 = type { i32, i32, ptr }
%struct.ImVector.17 = type { i32, i32, ptr }
%struct.ImVector.19 = type { i32, i32, ptr }
%struct.ImVector.20 = type { i32, i32, ptr }
%struct.ImVector.21 = type { i32, i32, ptr }
%struct.ImVector.22 = type { i32, i32, ptr }
%struct.ImVector.23 = type { i32, i32, ptr }
%struct.ImVector.18 = type { i32, i32, ptr }
%struct.ImGuiNavItemData = type { ptr, i32, i32, %struct.ImRect, i32, float, float, float, i64 }
%struct.ImGuiPayload = type <{ ptr, i32, i32, i32, i32, [33 x i8], i8, i8, [5 x i8] }>
%struct.ImVector.24 = type { i32, i32, ptr }
%struct.ImVector.25 = type { i32, i32, ptr }
%struct.ImPool = type { %struct.ImVector.26, %struct.ImGuiStorage, i32, i32 }
%struct.ImVector.26 = type { i32, i32, ptr }
%struct.ImPool.27 = type { %struct.ImVector.28, %struct.ImGuiStorage, i32, i32 }
%struct.ImVector.28 = type { i32, i32, ptr }
%struct.ImVector.29 = type { i32, i32, ptr }
%struct.ImVector.30 = type { i32, i32, ptr }
%struct.ImGuiBoxSelectState = type <{ i32, i8, i8, i8, i8, i8, i16, i8, %struct.ImVec2, %struct.ImVec2, %struct.ImVec2, [4 x i8], ptr, i8, [3 x i8], %struct.ImRect, %struct.ImRect, %struct.ImRect, [4 x i8] }>
%struct.ImVector.31 = type { i32, i32, ptr }
%struct.ImPool.32 = type { %struct.ImVector.33, %struct.ImGuiStorage, i32, i32 }
%struct.ImVector.33 = type { i32, i32, ptr }
%struct.ImGuiInputTextState = type <{ ptr, ptr, i32, i32, i32, [4 x i8], ptr, %struct.ImVector.34, %struct.ImVector.34, %struct.ImVector.34, i32, %struct.ImVec2, float, i8, i8, i8, i8, i32, i32, [4 x i8] }>
%struct.ImGuiInputTextDeactivatedState = type { i32, %struct.ImVector.34 }
%struct.ImFont = type <{ %struct.ImVector.1, float, float, %struct.ImVector.5, %struct.ImVector.35, ptr, ptr, ptr, i16, i16, i16, i16, float, float, float, float, float, i32, i8, [1 x i8], [6 x i8] }>
%struct.ImVector.35 = type { i32, i32, ptr }
%struct.ImGuiDataTypeStorage = type { [8 x i8] }
%struct.ImGuiComboPreviewData = type { %struct.ImRect, %struct.ImVec2, %struct.ImVec2, %struct.ImVec2, float, i32 }
%struct.ImGuiTypingSelectState = type <{ %struct.ImGuiTypingSelectRequest, [64 x i8], i32, i32, float, i8, [3 x i8] }>
%struct.ImGuiTypingSelectRequest = type { i32, i32, ptr, i8, i8, i8 }
%struct.ImGuiPlatformImeData = type { i8, %struct.ImVec2, float }
%struct.ImVector.36 = type { i32, i32, ptr }
%struct.ImChunkStream = type { %struct.ImVector.34 }
%struct.ImChunkStream.37 = type { %struct.ImVector.34 }
%struct.ImVector.38 = type { i32, i32, ptr }
%struct.ImGuiErrorRecoveryState = type { i16, i16, i16, i16, i16, i16, i16, i16, i16, i16, i16 }
%struct.ImGuiTextBuffer = type { %struct.ImVector.34 }
%struct.ImGuiTextIndex = type <{ %struct.ImVector.19, i32, [4 x i8] }>
%struct.ImGuiMetricsConfig = type { i8, i8, i8, i8, i8, i8, i8, i8, i8, i32, i32, i32, i32 }
%struct.ImGuiIDStackTool = type { i32, i32, i32, %struct.ImVector.39, i8, float }
%struct.ImVector.39 = type { i32, i32, ptr }
%struct.ImGuiDebugAllocInfo = type { i32, i32, i16, [6 x %struct.ImGuiDebugAllocEntry] }
%struct.ImGuiDebugAllocEntry = type { i32, i16, i16 }
%struct.ImVector.34 = type { i32, i32, ptr }

@GImGui = external global ptr, align 8

; Function Attrs: mustprogress nounwind uwtable
define linkonce_odr void @_ZN6ImRectC2ERK6ImVec2S2_(ptr noundef nonnull align 4 dereferenceable(16) %0, ptr noundef nonnull align 4 dereferenceable(8) %1, ptr noundef nonnull align 4 dereferenceable(8) %2) unnamed_addr #4 comdat align 2 {
  %4 = alloca ptr, align 8
  %5 = alloca ptr, align 8
  %6 = alloca ptr, align 8
  store ptr %0, ptr %4, align 8, !tbaa !176
  store ptr %1, ptr %5, align 8, !tbaa !175
  store ptr %2, ptr %6, align 8, !tbaa !175
  %7 = load ptr, ptr %4, align 8
  %8 = getelementptr inbounds nuw %struct.ImRect, ptr %7, i32 0, i32 0
  %9 = load ptr, ptr %5, align 8, !tbaa !175
  call void @llvm.memcpy.p0.p0.i64(ptr align 4 %8, ptr align 4 %9, i64 8, i1 false), !tbaa.struct !71
  %10 = getelementptr inbounds nuw %struct.ImRect, ptr %7, i32 0, i32 1
  %11 = load ptr, ptr %6, align 8, !tbaa !175
  call void @llvm.memcpy.p0.p0.i64(ptr align 4 %10, ptr align 4 %11, i64 8, i1 false), !tbaa.struct !71
  ret void
}

; Function Attrs: inlinehint mustprogress uwtable
define internal <2 x float> @_ZplRK6ImVec2S1_(ptr noundef nonnull align 4 dereferenceable(8) %0, ptr noundef nonnull align 4 dereferenceable(8) %1) #6 {
  %3 = alloca %struct.ImVec2, align 4
  %4 = alloca ptr, align 8
  %5 = alloca ptr, align 8
  store ptr %0, ptr %4, align 8, !tbaa !175
  store ptr %1, ptr %5, align 8, !tbaa !175
  %6 = load ptr, ptr %4, align 8, !tbaa !175
  %7 = getelementptr inbounds nuw %struct.ImVec2, ptr %6, i32 0, i32 0
  %8 = load float, ptr %7, align 4, !tbaa !166
  %9 = load ptr, ptr %5, align 8, !tbaa !175
  %10 = getelementptr inbounds nuw %struct.ImVec2, ptr %9, i32 0, i32 0
  %11 = load float, ptr %10, align 4, !tbaa !166
  %12 = fadd float %8, %11
  %13 = load ptr, ptr %4, align 8, !tbaa !175
  %14 = getelementptr inbounds nuw %struct.ImVec2, ptr %13, i32 0, i32 1
  %15 = load float, ptr %14, align 4, !tbaa !165
  %16 = load ptr, ptr %5, align 8, !tbaa !175
  %17 = getelementptr inbounds nuw %struct.ImVec2, ptr %16, i32 0, i32 1
  %18 = load float, ptr %17, align 4, !tbaa !165
  %19 = fadd float %15, %18
  call void @_ZN6ImVec2C2Eff(ptr noundef nonnull align 4 dereferenceable(8) %3, float noundef %12, float noundef %19)
  %20 = load <2 x float>, ptr %3, align 4
  ret <2 x float> %20
}

; Function Attrs: mustprogress nounwind uwtable
define linkonce_odr void @_ZN6ImVec2C2Eff(ptr noundef nonnull align 4 dereferenceable(8) %0, float noundef %1, float noundef %2) unnamed_addr #4 comdat align 2 {
  %4 = alloca ptr, align 8
  %5 = alloca float, align 4
  %6 = alloca float, align 4
  store ptr %0, ptr %4, align 8, !tbaa !175
  store float %1, ptr %5, align 4, !tbaa !69
  store float %2, ptr %6, align 4, !tbaa !69
  %7 = load ptr, ptr %4, align 8
  %8 = getelementptr inbounds nuw %struct.ImVec2, ptr %7, i32 0, i32 0
  %9 = load float, ptr %5, align 4, !tbaa !69
  store float %9, ptr %8, align 4, !tbaa !166
  %10 = getelementptr inbounds nuw %struct.ImVec2, ptr %7, i32 0, i32 1
  %11 = load float, ptr %6, align 4, !tbaa !69
  store float %11, ptr %10, align 4, !tbaa !165
  ret void
}

; Function Attrs: mustprogress uwtable
define noundef zeroext i1 @_ZN5ImGui14CollapseButtonEjRK6ImVec2(i32 noundef %0, ptr noundef nonnull align 4 dereferenceable(8) %1) #0 {
  %3 = alloca i1, align 1
  %4 = alloca i32, align 4
  %5 = alloca ptr, align 8
  %6 = alloca ptr, align 8
  %7 = alloca ptr, align 8
  %8 = alloca %struct.ImRect, align 4
  %9 = alloca %struct.ImVec2, align 4
  %10 = alloca %struct.ImVec2, align 4
  %11 = alloca i8, align 1
  %12 = alloca i8, align 1
  %13 = alloca i8, align 1
  %14 = alloca i8, align 1
  %15 = alloca i32, align 4
  %16 = alloca i32, align 4
  %17 = alloca i32, align 4
  %18 = alloca %struct.ImVec2, align 4
  store i32 %0, ptr %4, align 4, !tbaa !8
  store ptr %1, ptr %5, align 8, !tbaa !175
  call void @llvm.lifetime.start.p0(i64 8, ptr %6) #17
  %19 = load ptr, ptr @GImGui, align 8, !tbaa !64
  store ptr %19, ptr %6, align 8, !tbaa !64
  call void @llvm.lifetime.start.p0(i64 8, ptr %7) #17
  %20 = load ptr, ptr %6, align 8, !tbaa !64
  %21 = getelementptr inbounds nuw %struct.ImGuiContext, ptr %20, i32 0, i32 34
  %22 = load ptr, ptr %21, align 8, !tbaa !173
  store ptr %22, ptr %7, align 8, !tbaa !10
  call void @llvm.lifetime.start.p0(i64 16, ptr %8) #17
  %23 = load ptr, ptr %5, align 8, !tbaa !175
  call void @llvm.lifetime.start.p0(i64 8, ptr %9) #17
  %24 = load ptr, ptr %5, align 8, !tbaa !175
  call void @llvm.lifetime.start.p0(i64 8, ptr %10) #17
  %25 = load ptr, ptr %6, align 8, !tbaa !64
  %26 = getelementptr inbounds nuw %struct.ImGuiContext, ptr %25, i32 0, i32 6
  %27 = load float, ptr %26, align 8, !tbaa !186
  %28 = load ptr, ptr %6, align 8, !tbaa !64
  %29 = getelementptr inbounds nuw %struct.ImGuiContext, ptr %28, i32 0, i32 6
  %30 = load float, ptr %29, align 8, !tbaa !186
  call void @_ZN6ImVec2C2Eff(ptr noundef nonnull align 4 dereferenceable(8) %10, float noundef %27, float noundef %30)
  %31 = call <2 x float> @_ZplRK6ImVec2S1_(ptr noundef nonnull align 4 dereferenceable(8) %24, ptr noundef nonnull align 4 dereferenceable(8) %10)
  store <2 x float> %31, ptr %9, align 4
  call void @_ZN6ImRectC2ERK6ImVec2S2_(ptr noundef nonnull align 4 dereferenceable(16) %8, ptr noundef nonnull align 4 dereferenceable(8) %23, ptr noundef nonnull align 4 dereferenceable(8) %9)
  call void @llvm.lifetime.end.p0(i64 8, ptr %10) #17
  call void @llvm.lifetime.end.p0(i64 8, ptr %9) #17
  call void @llvm.lifetime.start.p0(i64 1, ptr %11) #17
  %32 = load i32, ptr %4, align 4, !tbaa !8
  %33 = call noundef zeroext i1 @_ZN5ImGui7ItemAddERK6ImRectjPS1_i(ptr noundef nonnull align 4 dereferenceable(16) %8, i32 noundef %32, ptr noundef null, i32 noundef 0)
  %34 = xor i1 %33, true
  %35 = zext i1 %34 to i8
  store i8 %35, ptr %11, align 1, !tbaa !70
  call void @llvm.lifetime.start.p0(i64 1, ptr %12) #17
  call void @llvm.lifetime.start.p0(i64 1, ptr %13) #17
  call void @llvm.lifetime.start.p0(i64 1, ptr %14) #17
  %36 = load i32, ptr %4, align 4, !tbaa !8
  %37 = call noundef zeroext i1 @_ZN5ImGui14ButtonBehaviorERK6ImRectjPbS3_i(ptr noundef nonnull align 4 dereferenceable(16) %8, i32 noundef %36, ptr noundef %12, ptr noundef %13, i32 noundef 0)
  %38 = zext i1 %37 to i8
  store i8 %38, ptr %14, align 1, !tbaa !70
  %39 = load i8, ptr %11, align 1, !tbaa !70, !range !62, !noundef !63
  %40 = trunc i8 %39 to i1
  br i1 %40, label %41, label %44

41:                                               ; preds = %2
  %42 = load i8, ptr %14, align 1, !tbaa !70, !range !62, !noundef !63
  %43 = trunc i8 %42 to i1
  store i1 %43, ptr %3, align 1
  store i32 1, ptr %15, align 4
  br label %92

44:                                               ; preds = %2
  call void @llvm.lifetime.start.p0(i64 4, ptr %16) #17
  %45 = load i8, ptr %13, align 1, !tbaa !70, !range !62, !noundef !63
  %46 = trunc i8 %45 to i1
  br i1 %46, label %47, label %51

47:                                               ; preds = %44
  %48 = load i8, ptr %12, align 1, !tbaa !70, !range !62, !noundef !63
  %49 = trunc i8 %48 to i1
  br i1 %49, label %50, label %51

50:                                               ; preds = %47
  br label %55

51:                                               ; preds = %47, %44
  %52 = load i8, ptr %12, align 1, !tbaa !70, !range !62, !noundef !63
  %53 = trunc i8 %52 to i1
  %54 = select i1 %53, i32 22, i32 21
  br label %55

55:                                               ; preds = %51, %50
  %56 = phi i32 [ 23, %50 ], [ %54, %51 ]
  %57 = call noundef i32 @_ZN5ImGui11GetColorU32Eif(i32 noundef %56, float noundef 1.000000e+00)
  store i32 %57, ptr %16, align 4, !tbaa !8
  call void @llvm.lifetime.start.p0(i64 4, ptr %17) #17
  %58 = call noundef i32 @_ZN5ImGui11GetColorU32Eif(i32 noundef 0, float noundef 1.000000e+00)
  store i32 %58, ptr %17, align 4, !tbaa !8
  %59 = load i8, ptr %12, align 1, !tbaa !70, !range !62, !noundef !63
  %60 = trunc i8 %59 to i1
  br i1 %60, label %64, label %61

61:                                               ; preds = %55
  %62 = load i8, ptr %13, align 1, !tbaa !70, !range !62, !noundef !63
  %63 = trunc i8 %62 to i1
  br i1 %63, label %64, label %71

64:                                               ; preds = %61, %55
  %65 = load ptr, ptr %7, align 8, !tbaa !10
  %66 = getelementptr inbounds nuw %struct.ImGuiWindow, ptr %65, i32 0, i32 89
  %67 = load ptr, ptr %66, align 8, !tbaa !188
  %68 = getelementptr inbounds nuw %struct.ImRect, ptr %8, i32 0, i32 0
  %69 = getelementptr inbounds nuw %struct.ImRect, ptr %8, i32 0, i32 1
  %70 = load i32, ptr %16, align 4, !tbaa !8
  call void @_ZN10ImDrawList13AddRectFilledERK6ImVec2S2_jfi(ptr noundef nonnull align 8 dereferenceable(216) %67, ptr noundef nonnull align 4 dereferenceable(8) %68, ptr noundef nonnull align 4 dereferenceable(8) %69, i32 noundef %70, float noundef 0.000000e+00, i32 noundef 0)
  br label %71

71:                                               ; preds = %64, %61
  %72 = load i32, ptr %4, align 4, !tbaa !8
  call void @_ZN5ImGui15RenderNavCursorERK6ImRectji(ptr noundef nonnull align 4 dereferenceable(16) %8, i32 noundef %72, i32 noundef 2)
  %73 = load ptr, ptr %7, align 8, !tbaa !10
  %74 = getelementptr inbounds nuw %struct.ImGuiWindow, ptr %73, i32 0, i32 89
  %75 = load ptr, ptr %74, align 8, !tbaa !188
  %76 = getelementptr inbounds nuw %struct.ImRect, ptr %8, i32 0, i32 0
  call void @llvm.memcpy.p0.p0.i64(ptr align 4 %18, ptr align 4 %76, i64 8, i1 false), !tbaa.struct !71
  %77 = load i32, ptr %17, align 4, !tbaa !8
  %78 = load ptr, ptr %7, align 8, !tbaa !10
  %79 = getelementptr inbounds nuw %struct.ImGuiWindow, ptr %78, i32 0, i32 39
  %80 = load i8, ptr %79, align 1, !tbaa !235, !range !62, !noundef !63
  %81 = trunc i8 %80 to i1
  %82 = select i1 %81, i32 1, i32 3
  %83 = load <2 x float>, ptr %18, align 4
  call void @_ZN5ImGui11RenderArrowEP10ImDrawList6ImVec2j8ImGuiDirf(ptr noundef %75, <2 x float> %83, i32 noundef %77, i32 noundef %82, float noundef 1.000000e+00)
  %84 = call noundef zeroext i1 @_ZN5ImGui12IsItemActiveEv()
  br i1 %84, label %85, label %89

85:                                               ; preds = %71
  %86 = call noundef zeroext i1 @_ZN5ImGui15IsMouseDraggingEif(i32 noundef 0, float noundef -1.000000e+00)
  br i1 %86, label %87, label %89

87:                                               ; preds = %85
  %88 = load ptr, ptr %7, align 8, !tbaa !10
  call void @_ZN5ImGui22StartMouseMovingWindowEP11ImGuiWindow(ptr noundef %88)
  br label %89

89:                                               ; preds = %87, %85, %71
  %90 = load i8, ptr %14, align 1, !tbaa !70, !range !62, !noundef !63
  %91 = trunc i8 %90 to i1
  store i1 %91, ptr %3, align 1
  store i32 1, ptr %15, align 4
  call void @llvm.lifetime.end.p0(i64 4, ptr %17) #17
  call void @llvm.lifetime.end.p0(i64 4, ptr %16) #17
  br label %92

92:                                               ; preds = %89, %41
  call void @llvm.lifetime.end.p0(i64 1, ptr %14) #17
  call void @llvm.lifetime.end.p0(i64 1, ptr %13) #17
  call void @llvm.lifetime.end.p0(i64 1, ptr %12) #17
  call void @llvm.lifetime.end.p0(i64 1, ptr %11) #17
  call void @llvm.lifetime.end.p0(i64 16, ptr %8) #17
  call void @llvm.lifetime.end.p0(i64 8, ptr %7) #17
  call void @llvm.lifetime.end.p0(i64 8, ptr %6) #17
  %93 = load i1, ptr %3, align 1
  ret i1 %93
}