; Function Attrs: mustprogress uwtable
define noundef zeroext i1 @_ZN5ImGui14CollapseButtonEjRK6ImVec2(i32 noundef %0, ptr noundef nonnull readonly align 4 captures(none) dereferenceable(8) %1) local_unnamed_addr #0 {
  %3 = alloca %struct.ImRect, align 8
  %4 = alloca i8, align 1
  %5 = alloca i8, align 1
  %6 = load ptr, ptr @GImGui, align 8, !tbaa !3
  %7 = getelementptr inbounds nuw i8, ptr %6, i64 5016
  %8 = load ptr, ptr %7, align 8, !tbaa !8
  call void @llvm.lifetime.start.p0(i64 16, ptr nonnull %3) #44
  %9 = getelementptr inbounds nuw i8, ptr %6, i64 4272
  %10 = load float, ptr %9, align 8, !tbaa !173
  %.val = load float, ptr %1, align 4, !tbaa !159
  %11 = getelementptr inbounds nuw i8, ptr %1, i64 4
  %.val17 = load float, ptr %11, align 4, !tbaa !160
  %12 = fadd float %10, %.val
  %13 = fadd float %10, %.val17
  %.sroa.0.0.vec.insert.i = insertelement <2 x float> poison, float %12, i64 0
  %.sroa.0.4.vec.insert.i = insertelement <2 x float> %.sroa.0.0.vec.insert.i, float %13, i64 1
  %14 = load i64, ptr %1, align 4
  store i64 %14, ptr %3, align 8
  %15 = getelementptr inbounds nuw i8, ptr %3, i64 8
  store <2 x float> %.sroa.0.4.vec.insert.i, ptr %15, align 8
  %16 = call noundef zeroext i1 @_ZN5ImGui7ItemAddERK6ImRectjPS1_i(ptr noundef nonnull align 4 dereferenceable(16) %3, i32 noundef %0, ptr noundef null, i32 noundef 0)
  call void @llvm.lifetime.start.p0(i64 1, ptr nonnull %4) #44
  call void @llvm.lifetime.start.p0(i64 1, ptr nonnull %5) #44
  %17 = call noundef zeroext i1 @_ZN5ImGui14ButtonBehaviorERK6ImRectjPbS3_i(ptr noundef nonnull align 4 dereferenceable(16) %3, i32 noundef %0, ptr noundef nonnull %4, ptr noundef nonnull %5, i32 noundef 0)
  br i1 %16, label %18, label %43

18:                                               ; preds = %2
  %19 = load i8, ptr %5, align 1, !tbaa !209, !range !153, !noundef !154
  %20 = trunc nuw i8 %19 to i1
  %.pre = load i8, ptr %4, align 1, !tbaa !209, !range !153
  %21 = trunc nuw i8 %.pre to i1
  %. = select i1 %20, i32 23, i32 22
  %spec.select = select i1 %21, i32 %., i32 21
  %22 = call noundef i32 @_ZN5ImGui11GetColorU32Eif(i32 noundef %spec.select, float noundef 1.000000e+00)
  %23 = call noundef i32 @_ZN5ImGui11GetColorU32Eif(i32 noundef 0, float noundef 1.000000e+00)
  %24 = load i8, ptr %4, align 1, !tbaa !209, !range !153, !noundef !154
  %25 = trunc nuw i8 %24 to i1
  br i1 %25, label %29, label %26

26:                                               ; preds = %18
  %27 = load i8, ptr %5, align 1, !tbaa !209, !range !153, !noundef !154
  %28 = trunc nuw i8 %27 to i1
  br i1 %28, label %29, label %32

29:                                               ; preds = %26, %18
  %30 = getelementptr inbounds nuw i8, ptr %8, i64 704
  %31 = load ptr, ptr %30, align 8, !tbaa !175
  call void @_ZN10ImDrawList13AddRectFilledERK6ImVec2S2_jfi(ptr noundef nonnull align 8 dereferenceable(216) %31, ptr noundef nonnull align 4 dereferenceable(8) %3, ptr noundef nonnull align 4 dereferenceable(8) %15, i32 noundef %22, float noundef 0.000000e+00, i32 noundef 0)
  br label %32

32:                                               ; preds = %29, %26
  call void @_ZN5ImGui15RenderNavCursorERK6ImRectji(ptr noundef nonnull align 4 dereferenceable(16) %3, i32 noundef %0, i32 noundef 2)
  %33 = getelementptr inbounds nuw i8, ptr %8, i64 704
  %34 = load ptr, ptr %33, align 8, !tbaa !175
  %.sroa.0.0.copyload = load <2 x float>, ptr %3, align 8
  %35 = getelementptr inbounds nuw i8, ptr %8, i64 205
  %36 = load i8, ptr %35, align 1, !tbaa !217, !range !153, !noundef !154
  %37 = trunc nuw i8 %36 to i1
  %38 = select i1 %37, i32 1, i32 3
  call void @_ZN5ImGui11RenderArrowEP10ImDrawList6ImVec2j8ImGuiDirf(ptr noundef %34, <2 x float> %.sroa.0.0.copyload, i32 noundef %23, i32 noundef %38, float noundef 1.000000e+00)
  %39 = call noundef zeroext i1 @_ZN5ImGui12IsItemActiveEv()
  br i1 %39, label %40, label %43

40:                                               ; preds = %32
  %41 = call noundef zeroext i1 @_ZN5ImGui15IsMouseDraggingEif(i32 noundef 0, float noundef -1.000000e+00)
  br i1 %41, label %42, label %43

42:                                               ; preds = %40
  call void @_ZN5ImGui22StartMouseMovingWindowEP11ImGuiWindow(ptr noundef nonnull %8)
  br label %43

43:                                               ; preds = %32, %40, %42, %2
  call void @llvm.lifetime.end.p0(i64 1, ptr nonnull %5) #44
  call void @llvm.lifetime.end.p0(i64 1, ptr nonnull %4) #44
  call void @llvm.lifetime.end.p0(i64 16, ptr nonnull %3) #44
  ret i1 %17
}